CCS PCM C Compiler, Version 5.007, 61971               29-Jul-20 22:03

               Filename:   C:\Users\yusuf\Desktop\PolisCakari\main.lst

               ROM used:   87 words (1%)
                           Largest free fragment is 2048
               RAM used:   8 (2%) at main() level
                           11 (3%) worst case
               Stack used: 0 locations
               Stack size: 8

*
0000:  MOVLW  00
0001:  MOVWF  0A
0002:  GOTO   018
0003:  NOP
.................... #include <main.h> 
.................... #include <16F877A.h> 
.................... //////// Standard Header file for the PIC16F877A device //////////////// 
.................... #device PIC16F877A 
....................  
.................... #list 
....................  
.................... #device ADC=16 
....................  
.................... #FUSES NOWDT                 	//No Watch Dog Timer 
.................... #FUSES NOBROWNOUT            	//No brownout reset 
.................... #FUSES NOLVP                 	//No low voltage prgming, B3(PIC16) or B5(PIC18) used for I/O 
....................  
.................... #use delay(crystal=20000000) 
0004:  MOVLW  26
0005:  MOVWF  04
0006:  BCF    03.7
0007:  MOVF   00,W
0008:  BTFSC  03.2
0009:  GOTO   017
000A:  MOVLW  06
000B:  MOVWF  78
000C:  CLRF   77
000D:  DECFSZ 77,F
000E:  GOTO   00D
000F:  DECFSZ 78,F
0010:  GOTO   00C
0011:  MOVLW  7B
0012:  MOVWF  77
0013:  DECFSZ 77,F
0014:  GOTO   013
0015:  DECFSZ 00,F
0016:  GOTO   00A
0017:  RETURN
....................  
....................  
....................  
.................... void main() 
0018:  BSF    03.5
0019:  BSF    1F.0
001A:  BSF    1F.1
001B:  BSF    1F.2
001C:  BCF    1F.3
001D:  MOVLW  07
001E:  MOVWF  1C
001F:  BCF    03.7
0020:  MOVLW  1F
0021:  ANDWF  03,F
0022:  MOVLW  01
0023:  BCF    03.5
0024:  MOVWF  22
0025:  MOVLW  80
0026:  MOVWF  23
.................... {  
....................    int8 data, data1 = 1, data2 = 128; 
....................     
....................    while(TRUE) 
....................    { 
....................       for(int8 i = 1; i<=7; i++) 
0027:  MOVLW  01
0028:  MOVWF  24
0029:  MOVF   24,W
002A:  SUBLW  07
002B:  BTFSS  03.0
002C:  GOTO   03E
....................       {   
....................          output_b(data); 
002D:  BSF    03.5
002E:  CLRF   06
002F:  BCF    03.5
0030:  MOVF   21,W
0031:  MOVWF  06
....................          delay_ms(100); 
0032:  MOVLW  64
0033:  MOVWF  26
0034:  CALL   004
....................          data1 = data1<<1; 
0035:  BCF    03.0
0036:  RLF    22,F
....................          data2 = data2>>1; 
0037:  BCF    03.0
0038:  RRF    23,F
....................          data = data1 | data2;  
0039:  MOVF   22,W
003A:  IORWF  23,W
003B:  MOVWF  21
003C:  INCF   24,F
003D:  GOTO   029
....................       } 
....................       for(int8 j = 1; j<=7; j++) 
003E:  MOVLW  01
003F:  MOVWF  25
0040:  MOVF   25,W
0041:  SUBLW  07
0042:  BTFSS  03.0
0043:  GOTO   055
....................       {   
....................          output_b(data); 
0044:  BSF    03.5
0045:  CLRF   06
0046:  BCF    03.5
0047:  MOVF   21,W
0048:  MOVWF  06
....................          delay_ms(100); 
0049:  MOVLW  64
004A:  MOVWF  26
004B:  CALL   004
....................          data1 = data1>>1; 
004C:  BCF    03.0
004D:  RRF    22,F
....................          data2 = data2<<1; 
004E:  BCF    03.0
004F:  RLF    23,F
....................          data = data1 | data2;  
0050:  MOVF   22,W
0051:  IORWF  23,W
0052:  MOVWF  21
0053:  INCF   25,F
0054:  GOTO   040
....................       } 
0055:  GOTO   027
....................    } 
.................... } 
0056:  SLEEP

Configuration Fuses:
   Word  1: 3F32   HS NOWDT PUT NOBROWNOUT NOLVP NOCPD NOWRT NODEBUG NOPROTECT
